; Function Attrs: uwtable
define noundef zeroext i1 @_ZThn8_N8proxygen26PassThroughHTTPCodecFilter23onNativeProtocolUpgradeEmNS_13CodecProtocolERKNSt7__cxx1112basic_stringIcSt11char_traitsIcESaIcEEERNS_11HTTPMessageE(ptr nocapture noundef readonly %this, i64 noundef %streamID, i8 noundef zeroext %protocol, ptr noundef nonnull align 8 dereferenceable(32) %protocolString, ptr noundef nonnull align 8 dereferenceable(616) %msg) unnamed_addr #4 align 2 {
entry:
  %callback_.i = getelementptr inbounds i8, ptr %this, i64 24
  %0 = load ptr, ptr %callback_.i, align 8
  %vtable.i = load ptr, ptr %0, align 8
  %vfn.i = getelementptr inbounds i8, ptr %vtable.i, i64 176
  %1 = load ptr, ptr %vfn.i, align 8
  %call.i = tail call noundef zeroext i1 %1(ptr noundef nonnull align 8 dereferenceable(8) %0, i64 noundef %streamID, i8 noundef zeroext %protocol, ptr noundef nonnull align 8 dereferenceable(32) %protocolString, ptr noundef nonnull align 8 dereferenceable(616) %msg)
  ret i1 %call.i
}